target datalayout = "e-m:e-p270:32:32-p271:32:32-p272:64:64-i64:64-i128:128-f80:128-n8:16:32:64-S128"
target triple = "x86_64-pc-linux-gnu"

%struct._GdkRGBA = type { double, double, double, double }
%struct.darktable_t = type { %struct.dt_codepath_t, i32, i32, ptr, ptr, ptr, ptr, ptr, ptr, ptr, ptr, ptr, ptr, ptr, ptr, ptr, ptr, ptr, ptr, ptr, ptr, ptr, ptr, ptr, ptr, ptr, ptr, ptr, ptr, ptr, [64 x %struct.dt_pthread_mutex_t], %struct.dt_pthread_mutex_t, %struct.dt_pthread_mutex_t, %struct.dt_pthread_mutex_t, %struct.dt_pthread_mutex_t, %struct.dt_pthread_mutex_t, ptr, ptr, ptr, ptr, ptr, ptr, ptr, ptr, ptr, ptr, ptr, ptr, ptr, %struct.dt_lua_state_t, ptr, double, ptr, i32, [47 x i32], i32, i32, ptr, ptr, %struct.dt_sys_resources_t, %struct.dt_backthumb_t, %struct.dt_gimp_t }
%struct.dt_codepath_t = type { i8, [3 x i8] }
%struct.dt_pthread_mutex_t = type { %union.pthread_mutex_t }
%union.pthread_mutex_t = type { %struct.__pthread_mutex_s }
%struct.__pthread_mutex_s = type { i32, i32, i32, i32, i32, i16, i16, %struct.__pthread_internal_list }
%struct.__pthread_internal_list = type { ptr, ptr }
%struct.dt_lua_state_t = type { i32 }
%struct.dt_sys_resources_t = type { i64, i64, ptr, ptr, i32 }
%struct.dt_backthumb_t = type { double, double, i32, i32, i32, i32 }
%struct.dt_gimp_t = type { i32, ptr, ptr, i32, i32 }
%struct.dt_iop_module_t = type { i32, ptr, ptr, ptr, ptr, ptr, ptr, ptr, ptr, ptr, ptr, ptr, ptr, ptr, ptr, ptr, ptr, ptr, ptr, ptr, ptr, ptr, ptr, ptr, ptr, ptr, ptr, ptr, ptr, ptr, ptr, ptr, ptr, ptr, ptr, ptr, ptr, ptr, ptr, ptr, ptr, ptr, ptr, ptr, ptr, ptr, ptr, ptr, ptr, ptr, ptr, ptr, ptr, ptr, ptr, ptr, ptr, [20 x i8], i32, i32, i32, i32, i32, i32, i32, [8 x i8], [4 x float], [4 x float], [4 x float], [4 x float], [4 x float], [4 x float], ptr, %struct.dt_dev_histogram_stats_t, [4 x i32], i32, i32, ptr, i32, i32, ptr, ptr, i32, ptr, %struct.dt_pthread_mutex_t, ptr, ptr, ptr, ptr, %struct.anon, ptr, ptr, ptr, ptr, ptr, ptr, ptr, i32, ptr, ptr, ptr, ptr, ptr, ptr, ptr, i32, ptr, i32, [128 x i8], i32, ptr, ptr, i32, [12 x i8] }
%struct.dt_dev_histogram_stats_t = type { i32, i64, i32, i32 }
%struct.anon = type { %struct.anon.0, %struct.anon.1 }
%struct.anon.0 = type { ptr, ptr }
%struct.anon.1 = type { ptr, i32 }
%struct.dt_gui_gtk_t = type { ptr, %struct.dt_gui_widgets_t, %struct.dt_gui_scrollbars_t, i32, ptr, i32, [39 x %struct._GdkRGBA], i32, i32, i32, i32, i32, double, double, double, double, ptr, double, double, double, double, i32, i32, [4096 x i8], i32, i32, i32, %struct.dt_pthread_mutex_t }
%struct.dt_gui_widgets_t = type { ptr, ptr, ptr, ptr, i32, i32, i32 }
%struct.dt_gui_scrollbars_t = type { ptr, ptr, i32 }
%struct._GdkEventButton = type { i32, ptr, i8, i32, double, double, ptr, i32, i32, ptr, double, double }

@darktable = external global %struct.darktable_t, align 8
@dt_modifier_shortcuts = external global i32, align 4

; Function Attrs: inlinehint nounwind uwtable
define internal i32 @dt_modifier_is(i32 noundef %0, i32 noundef %1) #3 {
  %3 = alloca i32, align 4
  %4 = alloca i32, align 4
  %5 = alloca i32, align 4
  store i32 %0, ptr %3, align 4, !tbaa !80
  store i32 %1, ptr %4, align 4, !tbaa !80
  call void @llvm.lifetime.start.p0(i64 4, ptr %5) #11
  %6 = call i32 @gtk_accelerator_get_default_mod_mask()
  store i32 %6, ptr %5, align 4, !tbaa !80
  %7 = load i32, ptr %3, align 4, !tbaa !80
  %8 = load i32, ptr @dt_modifier_shortcuts, align 4, !tbaa !80
  %9 = or i32 %7, %8
  %10 = load i32, ptr %5, align 4, !tbaa !80
  %11 = and i32 %9, %10
  %12 = load i32, ptr %4, align 4, !tbaa !80
  %13 = icmp eq i32 %11, %12
  %14 = zext i1 %13 to i32
  call void @llvm.lifetime.end.p0(i64 4, ptr %5) #11
  ret i32 %14
}

; Function Attrs: nounwind uwtable
define internal i32 @_blendop_blendif_showmask_clicked(ptr noundef %0, ptr noundef %1, ptr noundef %2) #0 {
  %4 = alloca i32, align 4
  %5 = alloca ptr, align 8
  %6 = alloca ptr, align 8
  %7 = alloca ptr, align 8
  %8 = alloca i32, align 4
  store ptr %0, ptr %5, align 8, !tbaa !187
  store ptr %1, ptr %6, align 8, !tbaa !172
  store ptr %2, ptr %7, align 8, !tbaa !6
  %9 = load ptr, ptr getelementptr inbounds nuw (%struct.darktable_t, ptr @darktable, i32 0, i32 14), align 8, !tbaa !39
  %10 = getelementptr inbounds nuw %struct.dt_gui_gtk_t, ptr %9, i32 0, i32 5
  %11 = load i32, ptr %10, align 8, !tbaa !72
  %12 = icmp ne i32 %11, 0
  br i1 %12, label %13, label %14

13:                                               ; preds = %3
  store i32 1, ptr %4, align 4
  br label %115

14:                                               ; preds = %3
  %15 = load ptr, ptr %6, align 8, !tbaa !172
  %16 = getelementptr inbounds nuw %struct._GdkEventButton, ptr %15, i32 0, i32 8
  %17 = load i32, ptr %16, align 4, !tbaa !212
  %18 = icmp eq i32 %17, 1
  br i1 %18, label %19, label %114

19:                                               ; preds = %14
  call void @llvm.lifetime.start.p0(i64 4, ptr %8) #11
  %20 = load ptr, ptr %7, align 8, !tbaa !6
  %21 = getelementptr inbounds nuw %struct.dt_iop_module_t, ptr %20, i32 0, i32 63
  %22 = load i32, ptr %21, align 16, !tbaa !158
  %23 = and i32 %22, 3
  store i32 %23, ptr %8, align 4, !tbaa !80
  %24 = load ptr, ptr %7, align 8, !tbaa !6
  %25 = getelementptr inbounds nuw %struct.dt_iop_module_t, ptr %24, i32 0, i32 63
  %26 = load i32, ptr %25, align 16, !tbaa !158
  %27 = and i32 %26, -1024
  store i32 %27, ptr %25, align 16, !tbaa !158
  %28 = load ptr, ptr %6, align 8, !tbaa !172
  %29 = getelementptr inbounds nuw %struct._GdkEventButton, ptr %28, i32 0, i32 7
  %30 = load i32, ptr %29, align 8, !tbaa !216
  %31 = call i32 @dt_modifier_is(i32 noundef %30, i32 noundef 5)
  %32 = icmp ne i32 %31, 0
  br i1 %32, label %33, label %38

33:                                               ; preds = %19
  %34 = load ptr, ptr %7, align 8, !tbaa !6
  %35 = getelementptr inbounds nuw %struct.dt_iop_module_t, ptr %34, i32 0, i32 63
  %36 = load i32, ptr %35, align 16, !tbaa !158
  %37 = or i32 %36, 3
  store i32 %37, ptr %35, align 16, !tbaa !158
  br label %70

38:                                               ; preds = %19
  %39 = load ptr, ptr %6, align 8, !tbaa !172
  %40 = getelementptr inbounds nuw %struct._GdkEventButton, ptr %39, i32 0, i32 7
  %41 = load i32, ptr %40, align 8, !tbaa !216
  %42 = call i32 @dt_modifier_is(i32 noundef %41, i32 noundef 1)
  %43 = icmp ne i32 %42, 0
  br i1 %43, label %44, label %49

44:                                               ; preds = %38
  %45 = load ptr, ptr %7, align 8, !tbaa !6
  %46 = getelementptr inbounds nuw %struct.dt_iop_module_t, ptr %45, i32 0, i32 63
  %47 = load i32, ptr %46, align 16, !tbaa !158
  %48 = or i32 %47, 2
  store i32 %48, ptr %46, align 16, !tbaa !158
  br label %69

49:                                               ; preds = %38
  %50 = load ptr, ptr %6, align 8, !tbaa !172
  %51 = getelementptr inbounds nuw %struct._GdkEventButton, ptr %50, i32 0, i32 7
  %52 = load i32, ptr %51, align 8, !tbaa !216
  %53 = call i32 @dt_modifier_is(i32 noundef %52, i32 noundef 4)
  %54 = icmp ne i32 %53, 0
  br i1 %54, label %55, label %60

55:                                               ; preds = %49
  %56 = load ptr, ptr %7, align 8, !tbaa !6
  %57 = getelementptr inbounds nuw %struct.dt_iop_module_t, ptr %56, i32 0, i32 63
  %58 = load i32, ptr %57, align 16, !tbaa !158
  %59 = or i32 %58, 1
  store i32 %59, ptr %57, align 16, !tbaa !158
  br label %68

60:                                               ; preds = %49
  %61 = load i32, ptr %8, align 4, !tbaa !80
  %62 = icmp ne i32 %61, 0
  %63 = select i1 %62, i32 0, i32 1
  %64 = load ptr, ptr %7, align 8, !tbaa !6
  %65 = getelementptr inbounds nuw %struct.dt_iop_module_t, ptr %64, i32 0, i32 63
  %66 = load i32, ptr %65, align 16, !tbaa !158
  %67 = or i32 %66, %63
  store i32 %67, ptr %65, align 16, !tbaa !158
  br label %68

68:                                               ; preds = %60, %55
  br label %69

69:                                               ; preds = %68, %44
  br label %70

70:                                               ; preds = %69, %33
  %71 = load ptr, ptr %5, align 8, !tbaa !187
  %72 = load ptr, ptr %7, align 8, !tbaa !6
  %73 = getelementptr inbounds nuw %struct.dt_iop_module_t, ptr %72, i32 0, i32 63
  %74 = load i32, ptr %73, align 16, !tbaa !158
  %75 = icmp ne i32 %74, 0
  %76 = zext i1 %75 to i32
  call void @gtk_toggle_button_set_active(ptr noundef %71, i32 noundef %76)
  %77 = load ptr, ptr %7, align 8, !tbaa !6
  %78 = getelementptr inbounds nuw %struct.dt_iop_module_t, ptr %77, i32 0, i32 91
  %79 = load ptr, ptr %78, align 8, !tbaa !298
  %80 = icmp ne ptr %79, null
  br i1 %80, label %81, label %87

81:                                               ; preds = %70
  %82 = load ptr, ptr %7, align 8, !tbaa !6
  %83 = getelementptr inbounds nuw %struct.dt_iop_module_t, ptr %82, i32 0, i32 91
  %84 = load ptr, ptr %83, align 8, !tbaa !298
  %85 = call i64 @gtk_toggle_button_get_type() #12
  %86 = call ptr @g_type_check_instance_cast(ptr noundef %84, i64 noundef %85)
  call void @gtk_toggle_button_set_active(ptr noundef %86, i32 noundef 1)
  br label %87

87:                                               ; preds = %81, %70
  %88 = load ptr, ptr getelementptr inbounds nuw (%struct.darktable_t, ptr @darktable, i32 0, i32 14), align 8, !tbaa !39
  %89 = getelementptr inbounds nuw %struct.dt_gui_gtk_t, ptr %88, i32 0, i32 5
  %90 = load i32, ptr %89, align 8, !tbaa !72
  %91 = add nsw i32 %90, 1
  store i32 %91, ptr %89, align 8, !tbaa !72
  %92 = load ptr, ptr %7, align 8, !tbaa !6
  %93 = getelementptr inbounds nuw %struct.dt_iop_module_t, ptr %92, i32 0, i32 95
  %94 = load ptr, ptr %93, align 8, !tbaa !277
  %95 = icmp ne ptr %94, null
  br i1 %95, label %96, label %107

96:                                               ; preds = %87
  %97 = load ptr, ptr %7, align 8, !tbaa !6
  %98 = getelementptr inbounds nuw %struct.dt_iop_module_t, ptr %97, i32 0, i32 95
  %99 = load ptr, ptr %98, align 8, !tbaa !277
  %100 = call i64 @gtk_toggle_button_get_type() #12
  %101 = call ptr @g_type_check_instance_cast(ptr noundef %99, i64 noundef %100)
  %102 = load ptr, ptr %7, align 8, !tbaa !6
  %103 = getelementptr inbounds nuw %struct.dt_iop_module_t, ptr %102, i32 0, i32 63
  %104 = load i32, ptr %103, align 16, !tbaa !158
  %105 = icmp ne i32 %104, 0
  %106 = zext i1 %105 to i32
  call void @gtk_toggle_button_set_active(ptr noundef %101, i32 noundef %106)
  br label %107

107:                                              ; preds = %96, %87
  %108 = load ptr, ptr getelementptr inbounds nuw (%struct.darktable_t, ptr @darktable, i32 0, i32 14), align 8, !tbaa !39
  %109 = getelementptr inbounds nuw %struct.dt_gui_gtk_t, ptr %108, i32 0, i32 5
  %110 = load i32, ptr %109, align 8, !tbaa !72
  %111 = add nsw i32 %110, -1
  store i32 %111, ptr %109, align 8, !tbaa !72
  %112 = load ptr, ptr %7, align 8, !tbaa !6
  call void @dt_iop_request_focus(ptr noundef %112)
  %113 = load ptr, ptr %7, align 8, !tbaa !6
  call void @dt_iop_refresh_center(ptr noundef %113)
  call void @llvm.lifetime.end.p0(i64 4, ptr %8) #11
  br label %114

114:                                              ; preds = %107, %14
  store i32 1, ptr %4, align 4
  br label %115

115:                                              ; preds = %114, %13
  %116 = load i32, ptr %4, align 4
  ret i32 %116
}