; Function Attrs: nounwind uwtable
define internal noundef i32 @_blendop_blendif_showmask_clicked(ptr noundef %0, ptr noundef readonly captures(none) %1, ptr noundef %2) #0 {
  %4 = load ptr, ptr getelementptr inbounds nuw (i8, ptr @darktable, i64 104), align 8, !tbaa !33
  %5 = getelementptr inbounds nuw i8, ptr %4, i64 96
  %6 = load i32, ptr %5, align 8, !tbaa !66
  %.not = icmp eq i32 %6, 0
  br i1 %.not, label %7, label %74

7:                                                ; preds = %3
  %8 = getelementptr inbounds nuw i8, ptr %1, i64 52
  %9 = load i32, ptr %8, align 4, !tbaa !184
  %10 = icmp eq i32 %9, 1
  br i1 %10, label %11, label %74

11:                                               ; preds = %7
  %12 = getelementptr inbounds nuw i8, ptr %2, i64 496
  %13 = load i32, ptr %12, align 16, !tbaa !144
  %14 = and i32 %13, 3
  %15 = and i32 %13, -1024
  store i32 %15, ptr %12, align 16, !tbaa !144
  %16 = getelementptr inbounds nuw i8, ptr %1, i64 48
  %17 = load i32, ptr %16, align 8, !tbaa !188
  %18 = tail call i32 @gtk_accelerator_get_default_mod_mask() #18
  %19 = load i32, ptr @dt_modifier_shortcuts, align 4, !tbaa !77
  %20 = or i32 %19, %17
  %21 = and i32 %20, %18
  %.not27 = icmp eq i32 %21, 5
  br i1 %.not27, label %22, label %25

22:                                               ; preds = %11
  %23 = load i32, ptr %12, align 16, !tbaa !144
  %24 = or i32 %23, 3
  store i32 %24, ptr %12, align 16, !tbaa !144
  br label %49

25:                                               ; preds = %11
  %26 = load i32, ptr %16, align 8, !tbaa !188
  %27 = tail call i32 @gtk_accelerator_get_default_mod_mask() #18
  %28 = load i32, ptr @dt_modifier_shortcuts, align 4, !tbaa !77
  %29 = or i32 %28, %26
  %30 = and i32 %29, %27
  %.not28 = icmp eq i32 %30, 1
  br i1 %.not28, label %31, label %34

31:                                               ; preds = %25
  %32 = load i32, ptr %12, align 16, !tbaa !144
  %33 = or i32 %32, 2
  store i32 %33, ptr %12, align 16, !tbaa !144
  br label %49

34:                                               ; preds = %25
  %35 = load i32, ptr %16, align 8, !tbaa !188
  %36 = tail call i32 @gtk_accelerator_get_default_mod_mask() #18
  %37 = load i32, ptr @dt_modifier_shortcuts, align 4, !tbaa !77
  %38 = or i32 %37, %35
  %39 = and i32 %38, %36
  %.not29 = icmp eq i32 %39, 4
  br i1 %.not29, label %40, label %43

40:                                               ; preds = %34
  %41 = load i32, ptr %12, align 16, !tbaa !144
  %42 = or i32 %41, 1
  store i32 %42, ptr %12, align 16, !tbaa !144
  br label %49

43:                                               ; preds = %34
  %.not24 = icmp eq i32 %14, 0
  %44 = zext i1 %.not24 to i32
  %45 = load i32, ptr %12, align 16, !tbaa !144
  %46 = or i32 %45, %44
  store i32 %46, ptr %12, align 16, !tbaa !144
  %47 = icmp ne i32 %46, 0
  %48 = zext i1 %47 to i32
  br label %49

49:                                               ; preds = %31, %43, %40, %22
  %50 = phi i32 [ 1, %31 ], [ %48, %43 ], [ 1, %40 ], [ 1, %22 ]
  tail call void @gtk_toggle_button_set_active(ptr noundef %0, i32 noundef %50) #18
  %51 = getelementptr inbounds nuw i8, ptr %2, i64 824
  %52 = load ptr, ptr %51, align 8, !tbaa !261
  %.not25 = icmp eq ptr %52, null
  br i1 %.not25, label %56, label %53

53:                                               ; preds = %49
  %54 = tail call i64 @gtk_toggle_button_get_type() #19
  %55 = tail call ptr @g_type_check_instance_cast(ptr noundef nonnull %52, i64 noundef %54) #18
  tail call void @gtk_toggle_button_set_active(ptr noundef %55, i32 noundef 1) #18
  br label %56

56:                                               ; preds = %53, %49
  %57 = load ptr, ptr getelementptr inbounds nuw (i8, ptr @darktable, i64 104), align 8, !tbaa !33
  %58 = getelementptr inbounds nuw i8, ptr %57, i64 96
  %59 = load i32, ptr %58, align 8, !tbaa !66
  %60 = add nsw i32 %59, 1
  store i32 %60, ptr %58, align 8, !tbaa !66
  %61 = getelementptr inbounds nuw i8, ptr %2, i64 856
  %62 = load ptr, ptr %61, align 8, !tbaa !246
  %.not26 = icmp eq ptr %62, null
  br i1 %.not26, label %70, label %63

63:                                               ; preds = %56
  %64 = tail call i64 @gtk_toggle_button_get_type() #19
  %65 = tail call ptr @g_type_check_instance_cast(ptr noundef nonnull %62, i64 noundef %64) #18
  %66 = load i32, ptr %12, align 16, !tbaa !144
  %67 = icmp ne i32 %66, 0
  %68 = zext i1 %67 to i32
  tail call void @gtk_toggle_button_set_active(ptr noundef %65, i32 noundef %68) #18
  %.pre = load ptr, ptr getelementptr inbounds nuw (i8, ptr @darktable, i64 104), align 8, !tbaa !33
  %.phi.trans.insert = getelementptr inbounds nuw i8, ptr %.pre, i64 96
  %.pre30 = load i32, ptr %.phi.trans.insert, align 8, !tbaa !66
  %69 = add nsw i32 %.pre30, -1
  br label %70

70:                                               ; preds = %63, %56
  %71 = phi i32 [ %69, %63 ], [ %59, %56 ]
  %72 = phi ptr [ %.pre, %63 ], [ %57, %56 ]
  %73 = getelementptr inbounds nuw i8, ptr %72, i64 96
  store i32 %71, ptr %73, align 8, !tbaa !66
  tail call void @dt_iop_request_focus(ptr noundef nonnull %2) #18
  tail call void @dt_iop_refresh_center(ptr noundef nonnull %2) #18
  br label %74

74:                                               ; preds = %7, %70, %3
  ret i32 1
}